target datalayout = "e-m:e-p270:32:32-p271:32:32-p272:64:64-i64:64-i128:128-f80:128-n8:16:32:64-S128"
target triple = "x86_64-pc-linux-gnu"

%"class.cv::Size_" = type { i32, i32 }
%"class.perf::TestBase" = type { %"class.testing::Test", %"class.std::vector", %"class.std::vector", i32, %"class.std::vector.0", i64, i64, i64, i32, i32, i32, i32, i32, [4 x i8], %"struct.perf::performance_metrics", i8, %"class.perf::TestBase::_declareHelper" }
%"class.testing::Test" = type { ptr, %"class.testing::internal::scoped_ptr" }
%"class.testing::internal::scoped_ptr" = type { ptr }
%"class.std::vector" = type { %"struct.std::_Vector_base" }
%"struct.std::_Vector_base" = type { %"struct.std::_Vector_base<std::pair<int, cv::Size_<int>>, std::allocator<std::pair<int, cv::Size_<int>>>>::_Vector_impl" }
%"struct.std::_Vector_base<std::pair<int, cv::Size_<int>>, std::allocator<std::pair<int, cv::Size_<int>>>>::_Vector_impl" = type { %"struct.std::_Vector_base<std::pair<int, cv::Size_<int>>, std::allocator<std::pair<int, cv::Size_<int>>>>::_Vector_impl_data" }
%"struct.std::_Vector_base<std::pair<int, cv::Size_<int>>, std::allocator<std::pair<int, cv::Size_<int>>>>::_Vector_impl_data" = type { ptr, ptr, ptr }
%"class.std::vector.0" = type { %"struct.std::_Vector_base.1" }
%"struct.std::_Vector_base.1" = type { %"struct.std::_Vector_base<long, std::allocator<long>>::_Vector_impl" }
%"struct.std::_Vector_base<long, std::allocator<long>>::_Vector_impl" = type { %"struct.std::_Vector_base<long, std::allocator<long>>::_Vector_impl_data" }
%"struct.std::_Vector_base<long, std::allocator<long>>::_Vector_impl_data" = type { ptr, ptr, ptr }
%"struct.perf::performance_metrics" = type <{ i64, i64, i32, i32, double, double, double, double, double, double, double, i32, [4 x i8] }>
%"class.perf::TestBase::_declareHelper" = type { ptr }
%"class.perf::MatType" = type { i32 }
%"struct.opencv_test::(anonymous namespace)::BorderMode" = type { i32 }
%"class.opencv_test::TestRemap_remap_remap_Test" = type <{ %"class.opencv_test::TestRemap_remap", i8, [7 x i8] }>
%"class.opencv_test::TestRemap_remap" = type { %"class.perf::TestBaseWithParam.98" }
%"class.perf::TestBaseWithParam.98" = type { %"class.perf::TestBase", %"class.testing::WithParamInterface.99" }
%"class.testing::WithParamInterface.99" = type { ptr }
%"struct.opencv_test::(anonymous namespace)::InterTypeExtended" = type { i32 }
%"struct.opencv_test::(anonymous namespace)::RemapMode" = type { i32 }
%"struct.std::_Head_base" = type { %"struct.opencv_test::(anonymous namespace)::BorderMode" }
%"struct.std::_Head_base.27" = type { %"class.cv::Size_" }
%"struct.std::_Head_base.28" = type { %"class.perf::MatType" }
%"class.testing::internal::TestFactoryBase" = type { ptr }
%"class.std::tuple.113" = type { %"struct.std::_Tuple_impl.114" }
%"struct.std::_Tuple_impl.114" = type { %"struct.std::_Tuple_impl.115", %"struct.std::_Head_base.28" }
%"struct.std::_Tuple_impl.115" = type { %"struct.std::_Tuple_impl.116", %"struct.std::_Head_base.27" }
%"struct.std::_Tuple_impl.116" = type { %"struct.std::_Tuple_impl.117", %"struct.std::_Head_base.120" }
%"struct.std::_Tuple_impl.117" = type { %"struct.std::_Tuple_impl.118", %"struct.std::_Head_base" }
%"struct.std::_Tuple_impl.118" = type { %"struct.std::_Head_base.119" }
%"struct.std::_Head_base.119" = type { %"struct.opencv_test::(anonymous namespace)::RemapMode" }
%"struct.std::_Head_base.120" = type { %"struct.opencv_test::(anonymous namespace)::InterTypeExtended" }
%"class.testing::(anonymous namespace)::ParameterizedTestFactory.238" = type { %"class.testing::internal::TestFactoryBase", %"class.std::tuple.113" }

@_ZN7testing8internal12g_parameter_E = external global ptr, align 8

; Function Attrs: inlinehint mustprogress nounwind uwtable
define internal void @_ZN7testing18WithParamInterfaceISt5tupleIJN4perf7MatTypeEN2cv5Size_IiEEN11opencv_test12_GLOBAL__N_117InterTypeExtendedENS8_10BorderModeENS8_9RemapModeEEEEC2Ev(ptr noundef nonnull align 8 dereferenceable(8) %0) unnamed_addr #4 align 2 {
  %2 = alloca ptr, align 8
  store ptr %0, ptr %2, align 8, !tbaa !214
  %3 = load ptr, ptr %2, align 8
  store ptr getelementptr inbounds inrange(-16, 16) ({ [4 x ptr] }, ptr @_ZTVN7testing18WithParamInterfaceISt5tupleIJN4perf7MatTypeEN2cv5Size_IiEEN11opencv_test12_GLOBAL__N_117InterTypeExtendedENS8_10BorderModeENS8_9RemapModeEEEEE, i32 0, i32 0, i32 2), ptr %3, align 8, !tbaa !20
  ret void
}

; Function Attrs: inlinehint mustprogress uwtable
define internal void @_ZN4perf17TestBaseWithParamISt5tupleIJNS_7MatTypeEN2cv5Size_IiEEN11opencv_test12_GLOBAL__N_117InterTypeExtendedENS7_10BorderModeENS7_9RemapModeEEEEC2Ev(ptr noundef nonnull align 8 dereferenceable(256) %0) unnamed_addr #12 align 2 {
  %2 = alloca ptr, align 8
  store ptr %0, ptr %2, align 8, !tbaa !258
  %3 = load ptr, ptr %2, align 8
  call void @_ZN4perf8TestBaseC2Ev(ptr noundef nonnull align 8 dereferenceable(248) %3)
  %4 = getelementptr inbounds i8, ptr %3, i64 248
  call void @_ZN7testing18WithParamInterfaceISt5tupleIJN4perf7MatTypeEN2cv5Size_IiEEN11opencv_test12_GLOBAL__N_117InterTypeExtendedENS8_10BorderModeENS8_9RemapModeEEEEC2Ev(ptr noundef nonnull align 8 dereferenceable(8) %4) #3
  store ptr getelementptr inbounds inrange(-16, 56) ({ [9 x ptr], [4 x ptr] }, ptr @_ZTVN4perf17TestBaseWithParamISt5tupleIJNS_7MatTypeEN2cv5Size_IiEEN11opencv_test12_GLOBAL__N_117InterTypeExtendedENS7_10BorderModeENS7_9RemapModeEEEEE, i32 0, i32 0, i32 2), ptr %3, align 8, !tbaa !20
  %5 = getelementptr inbounds i8, ptr %3, i64 248
  store ptr getelementptr inbounds inrange(-16, 16) ({ [9 x ptr], [4 x ptr] }, ptr @_ZTVN4perf17TestBaseWithParamISt5tupleIJNS_7MatTypeEN2cv5Size_IiEEN11opencv_test12_GLOBAL__N_117InterTypeExtendedENS7_10BorderModeENS7_9RemapModeEEEEE, i32 0, i32 1, i32 2), ptr %5, align 8, !tbaa !20
  ret void
}

; Function Attrs: mustprogress uwtable
define linkonce_odr hidden void @_ZN11opencv_test15TestRemap_remapC2Ev(ptr noundef nonnull align 8 dereferenceable(256) %0) unnamed_addr #6 comdat align 2 {
  %2 = alloca ptr, align 8
  store ptr %0, ptr %2, align 8, !tbaa !209
  %3 = load ptr, ptr %2, align 8
  call void @_ZN4perf17TestBaseWithParamISt5tupleIJNS_7MatTypeEN2cv5Size_IiEEN11opencv_test12_GLOBAL__N_117InterTypeExtendedENS7_10BorderModeENS7_9RemapModeEEEEC2Ev(ptr noundef nonnull align 8 dereferenceable(256) %3)
  store ptr getelementptr inbounds inrange(-16, 56) ({ [9 x ptr], [4 x ptr] }, ptr @_ZTVN11opencv_test15TestRemap_remapE, i32 0, i32 0, i32 2), ptr %3, align 8, !tbaa !20
  %4 = getelementptr inbounds i8, ptr %3, i64 248
  store ptr getelementptr inbounds inrange(-16, 16) ({ [9 x ptr], [4 x ptr] }, ptr @_ZTVN11opencv_test15TestRemap_remapE, i32 0, i32 1, i32 2), ptr %4, align 8, !tbaa !20
  ret void
}

; Function Attrs: mustprogress nounwind uwtable
define internal noundef nonnull align 8 dereferenceable(8) ptr @_ZN7testing18WithParamInterfaceISt5tupleIJN4perf7MatTypeEN2cv5Size_IiEEN11opencv_test12_GLOBAL__N_117InterTypeExtendedENS8_10BorderModeENS8_9RemapModeEEEE19GetParameterPtrRef_Ev() #9 align 2 {
  ret ptr @_ZN7testing8internal12g_parameter_E
}

; Function Attrs: mustprogress uwtable
define linkonce_odr hidden void @_ZN11opencv_test26TestRemap_remap_remap_TestC2Ev(ptr noundef nonnull align 8 dereferenceable(257) %0) unnamed_addr #6 comdat align 2 {
  %2 = alloca ptr, align 8
  store ptr %0, ptr %2, align 8, !tbaa !197
  %3 = load ptr, ptr %2, align 8
  call void @_ZN11opencv_test15TestRemap_remapC2Ev(ptr noundef nonnull align 8 dereferenceable(256) %3)
  store ptr getelementptr inbounds inrange(-16, 64) ({ [10 x ptr], [4 x ptr] }, ptr @_ZTVN11opencv_test26TestRemap_remap_remap_TestE, i32 0, i32 0, i32 2), ptr %3, align 8, !tbaa !20
  %4 = getelementptr inbounds i8, ptr %3, i64 248
  store ptr getelementptr inbounds inrange(-16, 16) ({ [10 x ptr], [4 x ptr] }, ptr @_ZTVN11opencv_test26TestRemap_remap_remap_TestE, i32 0, i32 1, i32 2), ptr %4, align 8, !tbaa !20
  %5 = getelementptr inbounds nuw %"class.opencv_test::TestRemap_remap_remap_Test", ptr %3, i32 0, i32 1
  store i8 0, ptr %5, align 8, !tbaa !199
  ret void
}

; Function Attrs: mustprogress uwtable
define internal void @_ZN7testing18WithParamInterfaceISt5tupleIJN4perf7MatTypeEN2cv5Size_IiEEN11opencv_test12_GLOBAL__N_117InterTypeExtendedENS8_10BorderModeENS8_9RemapModeEEEE8SetParamEPKSC_(ptr noundef %0) #6 align 2 {
  %2 = alloca ptr, align 8
  store ptr %0, ptr %2, align 8, !tbaa !212
  %3 = load ptr, ptr %2, align 8, !tbaa !212
  %4 = call noundef nonnull align 8 dereferenceable(8) ptr @_ZN7testing18WithParamInterfaceISt5tupleIJN4perf7MatTypeEN2cv5Size_IiEEN11opencv_test12_GLOBAL__N_117InterTypeExtendedENS8_10BorderModeENS8_9RemapModeEEEE19GetParameterPtrRef_Ev()
  store ptr %3, ptr %4, align 8, !tbaa !212
  ret void
}

; Function Attrs: mustprogress uwtable
define internal noundef ptr @_ZN7testing12_GLOBAL__N_124ParameterizedTestFactoryIN11opencv_test26TestRemap_remap_remap_TestEE10CreateTestEv(ptr noundef nonnull align 8 dereferenceable(32) %0) unnamed_addr #6 align 2 personality ptr @__gxx_personality_v0 {
  %2 = alloca ptr, align 8
  %3 = alloca ptr, align 8
  %4 = alloca i32, align 4
  store ptr %0, ptr %2, align 8, !tbaa !967
  %5 = load ptr, ptr %2, align 8
  %6 = getelementptr inbounds nuw %"class.testing::(anonymous namespace)::ParameterizedTestFactory.238", ptr %5, i32 0, i32 1
  call void @_ZN7testing18WithParamInterfaceISt5tupleIJN4perf7MatTypeEN2cv5Size_IiEEN11opencv_test12_GLOBAL__N_117InterTypeExtendedENS8_10BorderModeENS8_9RemapModeEEEE8SetParamEPKSC_(ptr noundef %6)
  %7 = call noalias noundef nonnull ptr @_Znwm(i64 noundef 264) #27
  invoke void @_ZN11opencv_test26TestRemap_remap_remap_TestC2Ev(ptr noundef nonnull align 8 dereferenceable(257) %7)
          to label %8 unwind label %9

8:                                                ; preds = %1
  ret ptr %7

9:                                                ; preds = %1
  %10 = landingpad { ptr, i32 }
          cleanup
  %11 = extractvalue { ptr, i32 } %10, 0
  store ptr %11, ptr %3, align 8
  %12 = extractvalue { ptr, i32 } %10, 1
  store i32 %12, ptr %4, align 4
  call void @_ZdlPv(ptr noundef %7) #28
  br label %13

13:                                               ; preds = %9
  %14 = load ptr, ptr %3, align 8
  %15 = load i32, ptr %4, align 4
  %16 = insertvalue { ptr, i32 } poison, ptr %14, 0
  %17 = insertvalue { ptr, i32 } %16, i32 %15, 1
  resume { ptr, i32 } %17
}